target datalayout = "e-m:e-p270:32:32-p271:32:32-p272:64:64-i64:64-i128:128-f80:128-n8:16:32:64-S128"
target triple = "x86_64-unknown-linux-gnu"

%"class.pugi::xml_attribute" = type { ptr }
%"struct.pugi::xml_attribute_struct" = type { i64, ptr, ptr, ptr, ptr }

; Function Attrs: mustprogress nounwind uwtable
define internal noundef ptr @_ZN4pugi4impl12_GLOBAL__N_117integer_to_stringImEEPcS3_S3_T_b(ptr noundef %begin, ptr noundef %end, i64 noundef %value, i1 noundef zeroext %negative) #0 {
entry:
  %begin.addr = alloca ptr, align 8
  %end.addr = alloca ptr, align 8
  %value.addr = alloca i64, align 8
  %negative.addr = alloca i8, align 1
  %result = alloca ptr, align 8
  %rest = alloca i64, align 8
  store ptr %begin, ptr %begin.addr, align 8
  store ptr %end, ptr %end.addr, align 8
  store i64 %value, ptr %value.addr, align 8
  %frombool = zext i1 %negative to i8
  store i8 %frombool, ptr %negative.addr, align 1
  %0 = load ptr, ptr %end.addr, align 8
  %add.ptr = getelementptr inbounds i8, ptr %0, i64 -1
  store ptr %add.ptr, ptr %result, align 8
  %1 = load i8, ptr %negative.addr, align 1
  %tobool = trunc i8 %1 to i1
  br i1 %tobool, label %cond.true, label %cond.false

cond.true:                                        ; preds = %entry
  %2 = load i64, ptr %value.addr, align 8
  %sub = sub i64 0, %2
  br label %cond.end

cond.false:                                       ; preds = %entry
  %3 = load i64, ptr %value.addr, align 8
  br label %cond.end

cond.end:                                         ; preds = %cond.false, %cond.true
  %cond = phi i64 [ %sub, %cond.true ], [ %3, %cond.false ]
  store i64 %cond, ptr %rest, align 8
  br label %do.body

do.body:                                          ; preds = %do.cond, %cond.end
  %4 = load i64, ptr %rest, align 8
  %rem = urem i64 %4, 10
  %add = add i64 48, %rem
  %conv = trunc i64 %add to i8
  %5 = load ptr, ptr %result, align 8
  %incdec.ptr = getelementptr inbounds i8, ptr %5, i32 -1
  store ptr %incdec.ptr, ptr %result, align 8
  store i8 %conv, ptr %5, align 1
  %6 = load i64, ptr %rest, align 8
  %div = udiv i64 %6, 10
  store i64 %div, ptr %rest, align 8
  br label %do.cond

do.cond:                                          ; preds = %do.body
  %7 = load i64, ptr %rest, align 8
  %tobool1 = icmp ne i64 %7, 0
  br i1 %tobool1, label %do.body, label %do.end, !llvm.loop !306

do.end:                                           ; preds = %do.cond
  %8 = load ptr, ptr %result, align 8
  store i8 45, ptr %8, align 1
  %9 = load ptr, ptr %result, align 8
  %10 = load i8, ptr %negative.addr, align 1
  %tobool2 = trunc i8 %10 to i1
  %lnot = xor i1 %tobool2, true
  %conv3 = zext i1 %lnot to i32
  %idx.ext = sext i32 %conv3 to i64
  %add.ptr4 = getelementptr inbounds i8, ptr %9, i64 %idx.ext
  ret ptr %add.ptr4
}

; Function Attrs: mustprogress uwtable
define internal noundef zeroext i1 @_ZN4pugi4impl12_GLOBAL__N_117set_value_integerImPcmEEbRT0_RT1_mT_b(ptr noundef nonnull align 8 dereferenceable(8) %dest, ptr noundef nonnull align 8 dereferenceable(8) %header, i64 noundef %header_mask, i64 noundef %value, i1 noundef zeroext %negative) #2 {
entry:
  %dest.addr = alloca ptr, align 8
  %header.addr = alloca ptr, align 8
  %header_mask.addr = alloca i64, align 8
  %value.addr = alloca i64, align 8
  %negative.addr = alloca i8, align 1
  %buf = alloca [64 x i8], align 16
  %end = alloca ptr, align 8
  %begin = alloca ptr, align 8
  store ptr %dest, ptr %dest.addr, align 8
  store ptr %header, ptr %header.addr, align 8
  store i64 %header_mask, ptr %header_mask.addr, align 8
  store i64 %value, ptr %value.addr, align 8
  %frombool = zext i1 %negative to i8
  store i8 %frombool, ptr %negative.addr, align 1
  %arraydecay = getelementptr inbounds [64 x i8], ptr %buf, i64 0, i64 0
  %add.ptr = getelementptr inbounds i8, ptr %arraydecay, i64 64
  store ptr %add.ptr, ptr %end, align 8
  %arraydecay1 = getelementptr inbounds [64 x i8], ptr %buf, i64 0, i64 0
  %0 = load ptr, ptr %end, align 8
  %1 = load i64, ptr %value.addr, align 8
  %2 = load i8, ptr %negative.addr, align 1
  %tobool = trunc i8 %2 to i1
  %call = call noundef ptr @_ZN4pugi4impl12_GLOBAL__N_117integer_to_stringImEEPcS3_S3_T_b(ptr noundef %arraydecay1, ptr noundef %0, i64 noundef %1, i1 noundef zeroext %tobool)
  store ptr %call, ptr %begin, align 8
  %3 = load ptr, ptr %dest.addr, align 8
  %4 = load ptr, ptr %header.addr, align 8
  %5 = load i64, ptr %header_mask.addr, align 8
  %6 = load ptr, ptr %begin, align 8
  %7 = load ptr, ptr %end, align 8
  %8 = load ptr, ptr %begin, align 8
  %sub.ptr.lhs.cast = ptrtoint ptr %7 to i64
  %sub.ptr.rhs.cast = ptrtoint ptr %8 to i64
  %sub.ptr.sub = sub i64 %sub.ptr.lhs.cast, %sub.ptr.rhs.cast
  %call2 = call noundef zeroext i1 @_ZN4pugi4impl12_GLOBAL__N_113strcpy_insituIPcmEEbRT_RT0_mPKcm(ptr noundef nonnull align 8 dereferenceable(8) %3, ptr noundef nonnull align 8 dereferenceable(8) %4, i64 noundef %5, ptr noundef %6, i64 noundef %sub.ptr.sub)
  ret i1 %call2
}

; Function Attrs: mustprogress uwtable
define noundef zeroext i1 @_ZN4pugi13xml_attribute9set_valueEm(ptr noundef nonnull align 8 dereferenceable(8) %this, i64 noundef %rhs) #2 align 2 {
entry:
  %retval = alloca i1, align 1
  %this.addr = alloca ptr, align 8
  %rhs.addr = alloca i64, align 8
  store ptr %this, ptr %this.addr, align 8
  store i64 %rhs, ptr %rhs.addr, align 8
  %this1 = load ptr, ptr %this.addr, align 8
  %_attr = getelementptr inbounds %"class.pugi::xml_attribute", ptr %this1, i32 0, i32 0
  %0 = load ptr, ptr %_attr, align 8
  %tobool = icmp ne ptr %0, null
  br i1 %tobool, label %if.end, label %if.then

if.then:                                          ; preds = %entry
  store i1 false, ptr %retval, align 1
  br label %return

if.end:                                           ; preds = %entry
  %_attr2 = getelementptr inbounds %"class.pugi::xml_attribute", ptr %this1, i32 0, i32 0
  %1 = load ptr, ptr %_attr2, align 8
  %value = getelementptr inbounds %"struct.pugi::xml_attribute_struct", ptr %1, i32 0, i32 2
  %_attr3 = getelementptr inbounds %"class.pugi::xml_attribute", ptr %this1, i32 0, i32 0
  %2 = load ptr, ptr %_attr3, align 8
  %header = getelementptr inbounds %"struct.pugi::xml_attribute_struct", ptr %2, i32 0, i32 0
  %3 = load i64, ptr %rhs.addr, align 8
  %call = call noundef zeroext i1 @_ZN4pugi4impl12_GLOBAL__N_117set_value_integerImPcmEEbRT0_RT1_mT_b(ptr noundef nonnull align 8 dereferenceable(8) %value, ptr noundef nonnull align 8 dereferenceable(8) %header, i64 noundef 16, i64 noundef %3, i1 noundef zeroext false)
  store i1 %call, ptr %retval, align 1
  br label %return

return:                                           ; preds = %if.end, %if.then
  %4 = load i1, ptr %retval, align 1
  ret i1 %4
}

; Function Attrs: mustprogress uwtable
define noundef nonnull align 8 dereferenceable(8) ptr @_ZN4pugi13xml_attributeaSEm(ptr noundef nonnull align 8 dereferenceable(8) %this, i64 noundef %rhs) #2 align 2 {
entry:
  %this.addr = alloca ptr, align 8
  %rhs.addr = alloca i64, align 8
  store ptr %this, ptr %this.addr, align 8
  store i64 %rhs, ptr %rhs.addr, align 8
  %this1 = load ptr, ptr %this.addr, align 8
  %0 = load i64, ptr %rhs.addr, align 8
  %call = call noundef zeroext i1 @_ZN4pugi13xml_attribute9set_valueEm(ptr noundef nonnull align 8 dereferenceable(8) %this1, i64 noundef %0)
  ret ptr %this1
}