; Function Attrs: mustprogress uwtable
define noundef nonnull align 8 dereferenceable(8) ptr @_ZN4pugi13xml_attributeaSEm(ptr noundef nonnull readonly returned align 8 dereferenceable(8) %this, i64 noundef %rhs) local_unnamed_addr #6 align 2 {
entry:
  %buf.i.i = alloca [64 x i8], align 16
  %0 = load ptr, ptr %this, align 8
  %tobool.not.i = icmp eq ptr %0, null
  br i1 %tobool.not.i, label %_ZN4pugi13xml_attribute9set_valueEm.exit, label %if.end.i

if.end.i:                                         ; preds = %entry
  call void @llvm.lifetime.start.p0(i64 64, ptr nonnull %buf.i.i)
  %add.ptr.i.i.i = getelementptr inbounds i8, ptr %buf.i.i, i64 63
  br label %do.body.i.i.i

do.body.i.i.i:                                    ; preds = %do.body.i.i.i, %if.end.i
  %result.0.i.i.i = phi ptr [ %add.ptr.i.i.i, %if.end.i ], [ %incdec.ptr.i.i.i, %do.body.i.i.i ]
  %rest.0.i.i.i = phi i64 [ %rhs, %if.end.i ], [ %div.i.i.i, %do.body.i.i.i ]
  %rem.i.i.i = urem i64 %rest.0.i.i.i, 10
  %1 = trunc i64 %rem.i.i.i to i8
  %conv.i.i.i = or disjoint i8 %1, 48
  %incdec.ptr.i.i.i = getelementptr inbounds i8, ptr %result.0.i.i.i, i64 -1
  store i8 %conv.i.i.i, ptr %result.0.i.i.i, align 1
  %div.i.i.i = udiv i64 %rest.0.i.i.i, 10
  %tobool1.not.i.i.i = icmp ult i64 %rest.0.i.i.i, 10
  br i1 %tobool1.not.i.i.i, label %_ZN4pugi4impl12_GLOBAL__N_117set_value_integerImPcmEEbRT0_RT1_mT_b.exit.i, label %do.body.i.i.i, !llvm.loop !6

_ZN4pugi4impl12_GLOBAL__N_117set_value_integerImPcmEEbRT0_RT1_mT_b.exit.i: ; preds = %do.body.i.i.i
  %value.i = getelementptr inbounds i8, ptr %0, i64 16
  %add.ptr.i.i = getelementptr inbounds i8, ptr %buf.i.i, i64 64
  store i8 45, ptr %incdec.ptr.i.i.i, align 1
  %sub.ptr.lhs.cast.i.i = ptrtoint ptr %add.ptr.i.i to i64
  %sub.ptr.rhs.cast.i.i = ptrtoint ptr %result.0.i.i.i to i64
  %sub.ptr.sub.i.i = sub i64 %sub.ptr.lhs.cast.i.i, %sub.ptr.rhs.cast.i.i
  %call2.i.i = call fastcc noundef zeroext i1 @_ZN4pugi4impl12_GLOBAL__N_113strcpy_insituIPcmEEbRT_RT0_mPKcm(ptr noundef nonnull align 8 dereferenceable(8) %value.i, ptr noundef nonnull align 8 dereferenceable(8) %0, i64 noundef 16, ptr noundef nonnull %result.0.i.i.i, i64 noundef %sub.ptr.sub.i.i)
  call void @llvm.lifetime.end.p0(i64 64, ptr nonnull %buf.i.i)
  br label %_ZN4pugi13xml_attribute9set_valueEm.exit

_ZN4pugi13xml_attribute9set_valueEm.exit:         ; preds = %entry, %_ZN4pugi4impl12_GLOBAL__N_117set_value_integerImPcmEEbRT0_RT1_mT_b.exit.i
  ret ptr %this
}